target datalayout = "e-m:e-p270:32:32-p271:32:32-p272:64:64-i64:64-i128:128-f80:128-n8:16:32:64-S128"
target triple = "x86_64-unknown-linux-gnu"

%struct.QObject = type { %struct.QObjectBase_ }
%struct.QObjectBase_ = type { i32, i64 }
%struct.QDictEntry = type { ptr, ptr, %struct.anon }
%struct.anon = type { ptr, ptr }

@.str.12 = private unnamed_addr constant [6 x i8] c"%s.%s\00", align 1
@.str.15 = private unnamed_addr constant [59 x i8] c"QTYPE_NONE < obj->base.type && obj->base.type < QTYPE__MAX\00", align 1
@.str.16 = private unnamed_addr constant [105 x i8] c"/home/dtcxzyw/WorkSpace/Projects/compilers/llvm-opt-benchmark/bench/qemu/qemu/include/qapi/qmp/qobject.h\00", align 1
@__PRETTY_FUNCTION__.qobject_type = private unnamed_addr constant [36 x i8] c"QType qobject_type(const QObject *)\00", align 1

; Function Attrs: nounwind sspstrong uwtable
define internal i32 @qobject_type(ptr noundef %obj) #0 {
entry:
  %obj.addr = alloca ptr, align 8
  store ptr %obj, ptr %obj.addr, align 8
  %0 = load ptr, ptr %obj.addr, align 8
  %base = getelementptr inbounds %struct.QObject, ptr %0, i32 0, i32 0
  %type = getelementptr inbounds %struct.QObjectBase_, ptr %base, i32 0, i32 0
  %1 = load i32, ptr %type, align 8
  %cmp = icmp ult i32 0, %1
  br i1 %cmp, label %land.lhs.true, label %if.else

land.lhs.true:                                    ; preds = %entry
  %2 = load ptr, ptr %obj.addr, align 8
  %base1 = getelementptr inbounds %struct.QObject, ptr %2, i32 0, i32 0
  %type2 = getelementptr inbounds %struct.QObjectBase_, ptr %base1, i32 0, i32 0
  %3 = load i32, ptr %type2, align 8
  %cmp3 = icmp ult i32 %3, 7
  br i1 %cmp3, label %if.then, label %if.else

if.then:                                          ; preds = %land.lhs.true
  br label %if.end

if.else:                                          ; preds = %land.lhs.true, %entry
  call void @__assert_fail(ptr noundef @.str.15, ptr noundef @.str.16, i32 noundef 126, ptr noundef @__PRETTY_FUNCTION__.qobject_type) #6
  unreachable

if.end:                                           ; preds = %if.then
  %4 = load ptr, ptr %obj.addr, align 8
  %base4 = getelementptr inbounds %struct.QObject, ptr %4, i32 0, i32 0
  %type5 = getelementptr inbounds %struct.QObjectBase_, ptr %base4, i32 0, i32 0
  %5 = load i32, ptr %type5, align 8
  ret i32 %5
}

; Function Attrs: nounwind sspstrong uwtable
define internal void @qobject_ref_impl(ptr noundef %obj) #0 {
entry:
  %obj.addr = alloca ptr, align 8
  store ptr %obj, ptr %obj.addr, align 8
  %0 = load ptr, ptr %obj.addr, align 8
  %tobool = icmp ne ptr %0, null
  br i1 %tobool, label %if.then, label %if.end

if.then:                                          ; preds = %entry
  %1 = load ptr, ptr %obj.addr, align 8
  %base = getelementptr inbounds %struct.QObject, ptr %1, i32 0, i32 0
  %refcnt = getelementptr inbounds %struct.QObjectBase_, ptr %base, i32 0, i32 1
  %2 = load i64, ptr %refcnt, align 8
  %inc = add i64 %2, 1
  store i64 %inc, ptr %refcnt, align 8
  br label %if.end

if.end:                                           ; preds = %if.then, %entry
  ret void
}

; Function Attrs: nounwind sspstrong uwtable
define internal ptr @qobject_check_type(ptr noundef %obj, i32 noundef %type) #0 {
entry:
  %retval = alloca ptr, align 8
  %obj.addr = alloca ptr, align 8
  %type.addr = alloca i32, align 4
  store ptr %obj, ptr %obj.addr, align 8
  store i32 %type, ptr %type.addr, align 4
  %0 = load ptr, ptr %obj.addr, align 8
  %tobool = icmp ne ptr %0, null
  br i1 %tobool, label %land.lhs.true, label %if.else

land.lhs.true:                                    ; preds = %entry
  %1 = load ptr, ptr %obj.addr, align 8
  %call = call i32 @qobject_type(ptr noundef %1)
  %2 = load i32, ptr %type.addr, align 4
  %cmp = icmp eq i32 %call, %2
  br i1 %cmp, label %if.then, label %if.else

if.then:                                          ; preds = %land.lhs.true
  %3 = load ptr, ptr %obj.addr, align 8
  store ptr %3, ptr %retval, align 8
  br label %return

if.else:                                          ; preds = %land.lhs.true, %entry
  store ptr null, ptr %retval, align 8
  br label %return

return:                                           ; preds = %if.else, %if.then
  %4 = load ptr, ptr %retval, align 8
  ret ptr %4
}

; Function Attrs: nounwind sspstrong uwtable
define internal void @qdict_flatten_qdict(ptr noundef %qdict, ptr noundef %target, ptr noundef %prefix) #0 {
entry:
  %qdict.addr = alloca ptr, align 8
  %target.addr = alloca ptr, align 8
  %prefix.addr = alloca ptr, align 8
  %value = alloca ptr, align 8
  %entry1 = alloca ptr, align 8
  %next = alloca ptr, align 8
  %dict_val = alloca ptr, align 8
  %list_val = alloca ptr, align 8
  %key = alloca ptr, align 8
  %new_key = alloca ptr, align 8
  %_o = alloca ptr, align 8
  %_obj2 = alloca ptr, align 8
  %tmp = alloca ptr, align 8
  %__mptr = alloca ptr, align 8
  %tmp31 = alloca ptr, align 8
  %tmp32 = alloca ptr, align 8
  store ptr %qdict, ptr %qdict.addr, align 8
  store ptr %target, ptr %target.addr, align 8
  store ptr %prefix, ptr %prefix.addr, align 8
  %0 = load ptr, ptr %qdict.addr, align 8
  %call = call ptr @qdict_first(ptr noundef %0)
  store ptr %call, ptr %entry1, align 8
  br label %while.cond

while.cond:                                       ; preds = %if.end35, %entry
  %1 = load ptr, ptr %entry1, align 8
  %cmp = icmp ne ptr %1, null
  br i1 %cmp, label %while.body, label %while.end

while.body:                                       ; preds = %while.cond
  %2 = load ptr, ptr %qdict.addr, align 8
  %3 = load ptr, ptr %entry1, align 8
  %call2 = call ptr @qdict_next(ptr noundef %2, ptr noundef %3)
  store ptr %call2, ptr %next, align 8
  %4 = load ptr, ptr %entry1, align 8
  %call3 = call ptr @qdict_entry_value(ptr noundef %4)
  store ptr %call3, ptr %value, align 8
  %5 = load ptr, ptr %value, align 8
  %call4 = call ptr @qobject_check_type(ptr noundef %5, i32 noundef 4)
  store ptr %call4, ptr %dict_val, align 8
  %6 = load ptr, ptr %value, align 8
  %call5 = call ptr @qobject_check_type(ptr noundef %6, i32 noundef 5)
  store ptr %call5, ptr %list_val, align 8
  %7 = load ptr, ptr %prefix.addr, align 8
  %tobool = icmp ne ptr %7, null
  br i1 %tobool, label %if.then, label %if.else

if.then:                                          ; preds = %while.body
  %8 = load ptr, ptr %prefix.addr, align 8
  %9 = load ptr, ptr %entry1, align 8
  %key6 = getelementptr inbounds %struct.QDictEntry, ptr %9, i32 0, i32 0
  %10 = load ptr, ptr %key6, align 8
  %call7 = call noalias ptr (ptr, ...) @g_strdup_printf(ptr noundef @.str.12, ptr noundef %8, ptr noundef %10)
  store ptr %call7, ptr %new_key, align 8
  store ptr %call7, ptr %key, align 8
  br label %if.end

if.else:                                          ; preds = %while.body
  %11 = load ptr, ptr %entry1, align 8
  %key8 = getelementptr inbounds %struct.QDictEntry, ptr %11, i32 0, i32 0
  %12 = load ptr, ptr %key8, align 8
  store ptr %12, ptr %key, align 8
  store ptr null, ptr %new_key, align 8
  br label %if.end

if.end:                                           ; preds = %if.else, %if.then
  %13 = load ptr, ptr %dict_val, align 8
  %tobool9 = icmp ne ptr %13, null
  br i1 %tobool9, label %land.lhs.true, label %if.else17

land.lhs.true:                                    ; preds = %if.end
  %14 = load ptr, ptr %dict_val, align 8
  %call10 = call i64 @qdict_size(ptr noundef %14)
  %tobool11 = icmp ne i64 %call10, 0
  br i1 %tobool11, label %if.then12, label %if.else17

if.then12:                                        ; preds = %land.lhs.true
  %15 = load ptr, ptr %dict_val, align 8
  %16 = load ptr, ptr %target.addr, align 8
  %17 = load ptr, ptr %key, align 8
  call void @qdict_flatten_qdict(ptr noundef %15, ptr noundef %16, ptr noundef %17)
  %18 = load ptr, ptr %target.addr, align 8
  %19 = load ptr, ptr %qdict.addr, align 8
  %cmp13 = icmp eq ptr %18, %19
  br i1 %cmp13, label %if.then14, label %if.end16

if.then14:                                        ; preds = %if.then12
  %20 = load ptr, ptr %qdict.addr, align 8
  %21 = load ptr, ptr %entry1, align 8
  %key15 = getelementptr inbounds %struct.QDictEntry, ptr %21, i32 0, i32 0
  %22 = load ptr, ptr %key15, align 8
  call void @qdict_del(ptr noundef %20, ptr noundef %22)
  br label %if.end16

if.end16:                                         ; preds = %if.then14, %if.then12
  br label %if.end35

if.else17:                                        ; preds = %land.lhs.true, %if.end
  %23 = load ptr, ptr %list_val, align 8
  %tobool18 = icmp ne ptr %23, null
  br i1 %tobool18, label %land.lhs.true19, label %if.else27

land.lhs.true19:                                  ; preds = %if.else17
  %24 = load ptr, ptr %list_val, align 8
  %call20 = call i32 @qlist_empty(ptr noundef %24)
  %tobool21 = icmp ne i32 %call20, 0
  br i1 %tobool21, label %if.else27, label %if.then22

if.then22:                                        ; preds = %land.lhs.true19
  %25 = load ptr, ptr %list_val, align 8
  %26 = load ptr, ptr %target.addr, align 8
  %27 = load ptr, ptr %key, align 8
  call void @qdict_flatten_qlist(ptr noundef %25, ptr noundef %26, ptr noundef %27)
  %28 = load ptr, ptr %target.addr, align 8
  %29 = load ptr, ptr %qdict.addr, align 8
  %cmp23 = icmp eq ptr %28, %29
  br i1 %cmp23, label %if.then24, label %if.end26

if.then24:                                        ; preds = %if.then22
  %30 = load ptr, ptr %qdict.addr, align 8
  %31 = load ptr, ptr %entry1, align 8
  %key25 = getelementptr inbounds %struct.QDictEntry, ptr %31, i32 0, i32 0
  %32 = load ptr, ptr %key25, align 8
  call void @qdict_del(ptr noundef %30, ptr noundef %32)
  br label %if.end26

if.end26:                                         ; preds = %if.then24, %if.then22
  br label %if.end34

if.else27:                                        ; preds = %land.lhs.true19, %if.else17
  %33 = load ptr, ptr %target.addr, align 8
  %34 = load ptr, ptr %qdict.addr, align 8
  %cmp28 = icmp ne ptr %33, %34
  br i1 %cmp28, label %if.then29, label %if.end33

if.then29:                                        ; preds = %if.else27
  %35 = load ptr, ptr %target.addr, align 8
  %36 = load ptr, ptr %key, align 8
  %37 = load ptr, ptr %value, align 8
  store ptr %37, ptr %_o, align 8
  %38 = load ptr, ptr %_o, align 8
  store ptr %38, ptr %_obj2, align 8
  %39 = load ptr, ptr %_obj2, align 8
  %tobool30 = icmp ne ptr %39, null
  br i1 %tobool30, label %cond.true, label %cond.false

cond.true:                                        ; preds = %if.then29
  %40 = load ptr, ptr %_obj2, align 8
  %base = getelementptr inbounds %struct.QObject, ptr %40, i32 0, i32 0
  store ptr %base, ptr %__mptr, align 8
  %41 = load ptr, ptr %__mptr, align 8
  %add.ptr = getelementptr i8, ptr %41, i64 0
  store ptr %add.ptr, ptr %tmp31, align 8
  %42 = load ptr, ptr %tmp31, align 8
  br label %cond.end

cond.false:                                       ; preds = %if.then29
  br label %cond.end

cond.end:                                         ; preds = %cond.false, %cond.true
  %cond = phi ptr [ %42, %cond.true ], [ null, %cond.false ]
  store ptr %cond, ptr %tmp, align 8
  %43 = load ptr, ptr %tmp, align 8
  call void @qobject_ref_impl(ptr noundef %43)
  %44 = load ptr, ptr %_o, align 8
  store ptr %44, ptr %tmp32, align 8
  %45 = load ptr, ptr %tmp32, align 8
  call void @qdict_put_obj(ptr noundef %35, ptr noundef %36, ptr noundef %45)
  br label %if.end33

if.end33:                                         ; preds = %cond.end, %if.else27
  br label %if.end34

if.end34:                                         ; preds = %if.end33, %if.end26
  br label %if.end35

if.end35:                                         ; preds = %if.end34, %if.end16
  %46 = load ptr, ptr %new_key, align 8
  call void @g_free(ptr noundef %46)
  %47 = load ptr, ptr %next, align 8
  store ptr %47, ptr %entry1, align 8
  br label %while.cond, !llvm.loop !5

while.end:                                        ; preds = %while.cond
  ret void
}