; Function Attrs: nounwind sspstrong uwtable
define internal fastcc void @qdict_flatten_qdict(ptr noundef %qdict, ptr noundef %target, ptr noundef %prefix) unnamed_addr #0 {
entry:
  %call = tail call ptr @qdict_first(ptr noundef %qdict) #7
  %cmp.not45 = icmp eq ptr %call, null
  br i1 %cmp.not45, label %while.end, label %while.body.lr.ph

while.body.lr.ph:                                 ; preds = %entry
  %tobool.not = icmp eq ptr %prefix, null
  %cmp13 = icmp eq ptr %target, %qdict
  br label %while.body

while.body:                                       ; preds = %while.body.lr.ph, %if.end35
  %entry1.046 = phi ptr [ %call, %while.body.lr.ph ], [ %call2, %if.end35 ]
  %call2 = tail call ptr @qdict_next(ptr noundef %qdict, ptr noundef nonnull %entry1.046) #7
  %call3 = tail call ptr @qdict_entry_value(ptr noundef nonnull %entry1.046) #7
  %tobool.not.i = icmp eq ptr %call3, null
  br i1 %tobool.not.i, label %qobject_check_type.exit38, label %land.lhs.true.i

land.lhs.true.i:                                  ; preds = %while.body
  %obj.val.i = load i32, ptr %call3, align 8
  %0 = add i32 %obj.val.i, -1
  %or.cond.i.i = icmp ult i32 %0, 6
  br i1 %or.cond.i.i, label %qobject_type.exit.i, label %if.else.i.i

if.else.i.i:                                      ; preds = %land.lhs.true.i
  tail call void @__assert_fail(ptr noundef nonnull @.str.15, ptr noundef nonnull @.str.16, i32 noundef 126, ptr noundef nonnull @__PRETTY_FUNCTION__.qobject_type) #8
  unreachable

qobject_type.exit.i:                              ; preds = %land.lhs.true.i
  %cmp.i = icmp eq i32 %obj.val.i, 4
  %spec.select47 = select i1 %cmp.i, ptr %call3, ptr null
  %cmp.i35 = icmp eq i32 %obj.val.i, 5
  %spec.select = select i1 %cmp.i35, ptr %call3, ptr null
  br label %qobject_check_type.exit38

qobject_check_type.exit38:                        ; preds = %qobject_type.exit.i, %while.body
  %retval.0.i42 = phi ptr [ null, %while.body ], [ %spec.select47, %qobject_type.exit.i ]
  %retval.0.i37 = phi ptr [ null, %while.body ], [ %spec.select, %qobject_type.exit.i ]
  %1 = load ptr, ptr %entry1.046, align 8
  br i1 %tobool.not, label %if.end, label %if.then

if.then:                                          ; preds = %qobject_check_type.exit38
  %call7 = tail call noalias ptr (ptr, ...) @g_strdup_printf(ptr noundef nonnull @.str.12, ptr noundef nonnull %prefix, ptr noundef %1) #7
  br label %if.end

if.end:                                           ; preds = %qobject_check_type.exit38, %if.then
  %new_key.0 = phi ptr [ %call7, %if.then ], [ null, %qobject_check_type.exit38 ]
  %key.0 = phi ptr [ %call7, %if.then ], [ %1, %qobject_check_type.exit38 ]
  %tobool9.not = icmp eq ptr %retval.0.i42, null
  br i1 %tobool9.not, label %if.else17, label %land.lhs.true

land.lhs.true:                                    ; preds = %if.end
  %call10 = tail call i64 @qdict_size(ptr noundef nonnull %retval.0.i42) #7
  %tobool11.not = icmp eq i64 %call10, 0
  br i1 %tobool11.not, label %if.else17, label %if.then12

if.then12:                                        ; preds = %land.lhs.true
  tail call fastcc void @qdict_flatten_qdict(ptr noundef nonnull %retval.0.i42, ptr noundef %target, ptr noundef %key.0)
  br i1 %cmp13, label %if.then14, label %if.end35

if.then14:                                        ; preds = %if.then12
  %2 = load ptr, ptr %entry1.046, align 8
  tail call void @qdict_del(ptr noundef %qdict, ptr noundef %2) #7
  br label %if.end35

if.else17:                                        ; preds = %land.lhs.true, %if.end
  %tobool18.not = icmp eq ptr %retval.0.i37, null
  br i1 %tobool18.not, label %if.else27, label %land.lhs.true19

land.lhs.true19:                                  ; preds = %if.else17
  %call20 = tail call i32 @qlist_empty(ptr noundef nonnull %retval.0.i37) #7
  %tobool21.not = icmp eq i32 %call20, 0
  br i1 %tobool21.not, label %if.then22, label %if.else27

if.then22:                                        ; preds = %land.lhs.true19
  tail call fastcc void @qdict_flatten_qlist(ptr noundef %retval.0.i37, ptr noundef %target, ptr noundef %key.0)
  br i1 %cmp13, label %if.then24, label %if.end35

if.then24:                                        ; preds = %if.then22
  %3 = load ptr, ptr %entry1.046, align 8
  tail call void @qdict_del(ptr noundef %qdict, ptr noundef %3) #7
  br label %if.end35

if.else27:                                        ; preds = %land.lhs.true19, %if.else17
  br i1 %cmp13, label %if.end35, label %if.then29

if.then29:                                        ; preds = %if.else27
  br i1 %tobool.not.i, label %qobject_ref_impl.exit, label %if.then.i

if.then.i:                                        ; preds = %if.then29
  %refcnt.i = getelementptr inbounds nuw i8, ptr %call3, i64 8
  %4 = load i64, ptr %refcnt.i, align 8
  %inc.i = add i64 %4, 1
  store i64 %inc.i, ptr %refcnt.i, align 8
  br label %qobject_ref_impl.exit

qobject_ref_impl.exit:                            ; preds = %if.then29, %if.then.i
  tail call void @qdict_put_obj(ptr noundef %target, ptr noundef %key.0, ptr noundef %call3) #7
  br label %if.end35

if.end35:                                         ; preds = %if.then24, %if.then22, %qobject_ref_impl.exit, %if.else27, %if.then12, %if.then14
  tail call void @g_free(ptr noundef %new_key.0) #7
  %cmp.not = icmp eq ptr %call2, null
  br i1 %cmp.not, label %while.end, label %while.body, !llvm.loop !5

while.end:                                        ; preds = %if.end35, %entry
  ret void
}